target datalayout = "e-m:e-p270:32:32-p271:32:32-p272:64:64-i64:64-i128:128-f80:128-n8:16:32:64-S128"
target triple = "x86_64-pc-linux-gnu"

; Function Attrs: nounwind uwtable
define void @png_crc_read(ptr noalias noundef %0, ptr noundef %1, i32 noundef %2) #0 {
  %4 = alloca ptr, align 8
  %5 = alloca ptr, align 8
  %6 = alloca i32, align 4
  store ptr %0, ptr %4, align 8, !tbaa !3
  store ptr %1, ptr %5, align 8, !tbaa !8
  store i32 %2, ptr %6, align 4, !tbaa !11
  %7 = load ptr, ptr %4, align 8, !tbaa !3
  %8 = icmp eq ptr %7, null
  br i1 %8, label %9, label %10

9:                                                ; preds = %3
  br label %19

10:                                               ; preds = %3
  %11 = load ptr, ptr %4, align 8, !tbaa !3
  %12 = load ptr, ptr %5, align 8, !tbaa !8
  %13 = load i32, ptr %6, align 4, !tbaa !11
  %14 = zext i32 %13 to i64
  call void @png_read_data(ptr noundef %11, ptr noundef %12, i64 noundef %14)
  %15 = load ptr, ptr %4, align 8, !tbaa !3
  %16 = load ptr, ptr %5, align 8, !tbaa !8
  %17 = load i32, ptr %6, align 4, !tbaa !11
  %18 = zext i32 %17 to i64
  call void @png_calculate_crc(ptr noundef %15, ptr noundef %16, i64 noundef %18)
  br label %19

19:                                               ; preds = %10, %9
  ret void
}