; Function Attrs: nounwind uwtable
define void @png_crc_read(ptr noalias noundef %0, ptr noundef %1, i32 noundef %2) local_unnamed_addr #0 {
  %4 = icmp eq ptr %0, null
  br i1 %4, label %7, label %5

5:                                                ; preds = %3
  %6 = zext i32 %2 to i64
  tail call void @png_read_data(ptr noundef nonnull %0, ptr noundef %1, i64 noundef %6) #12
  tail call void @png_calculate_crc(ptr noundef nonnull %0, ptr noundef %1, i64 noundef %6) #12
  br label %7

7:                                                ; preds = %3, %5
  ret void
}